; Function Attrs: mustprogress uwtable
define void @_ZN8QuantLib8Settings19resetEvaluationDateEv(ptr nocapture noundef nonnull align 8 dereferenceable(28) %this) local_unnamed_addr #3 align 2 {
entry:
  %ref.tmp = alloca %"class.QuantLib::Date", align 8
  call void @llvm.lifetime.start.p0(i64 8, ptr nonnull %ref.tmp) #10
  call void @_ZN8QuantLib4DateC1Ev(ptr noundef nonnull align 8 dereferenceable(8) %ref.tmp)
  %0 = load i64, ptr %this, align 8, !tbaa !28
  %1 = load i64, ptr %ref.tmp, align 8, !tbaa !3
  %cmp.i.not.i = icmp eq i64 %0, %1
  br i1 %cmp.i.not.i, label %_ZN8QuantLib8Settings9DateProxyaSERKNS_4DateE.exit, label %if.then.i

if.then.i:                                        ; preds = %entry
  store i64 %1, ptr %this, align 8, !tbaa !3
  %observable_.i.i = getelementptr inbounds nuw i8, ptr %this, i64 8
  %2 = load ptr, ptr %observable_.i.i, align 8, !tbaa !18
  %cmp.not.i.i.i = icmp eq ptr %2, null
  br i1 %cmp.not.i.i.i, label %cond.false.i.i.i, label %_ZN8QuantLib15ObservableValueINS_4DateEEaSERKS1_.exit.i, !prof !39

cond.false.i.i.i:                                 ; preds = %if.then.i
  call void @_ZN5boost16assertion_failedEPKcS1_S1_l(ptr noundef nonnull @.str, ptr noundef nonnull @__PRETTY_FUNCTION__._ZNK5boost10shared_ptrIN8QuantLib10ObservableEEptEv, ptr noundef nonnull @.str.2, i64 noundef 784)
  %.pre.i.i.i = load ptr, ptr %observable_.i.i, align 8, !tbaa !18
  br label %_ZN8QuantLib15ObservableValueINS_4DateEEaSERKS1_.exit.i

_ZN8QuantLib15ObservableValueINS_4DateEEaSERKS1_.exit.i: ; preds = %cond.false.i.i.i, %if.then.i
  %3 = phi ptr [ %2, %if.then.i ], [ %.pre.i.i.i, %cond.false.i.i.i ]
  call void @_ZN8QuantLib10Observable15notifyObserversEv(ptr noundef nonnull align 8 dereferenceable(56) %3)
  br label %_ZN8QuantLib8Settings9DateProxyaSERKNS_4DateE.exit

_ZN8QuantLib8Settings9DateProxyaSERKNS_4DateE.exit: ; preds = %entry, %_ZN8QuantLib15ObservableValueINS_4DateEEaSERKS1_.exit.i
  call void @llvm.lifetime.end.p0(i64 8, ptr nonnull %ref.tmp) #10
  ret void
}